; Function Attrs: nounwind uwtable
define ptr @l_Array_filterMapM___at_Lake_Package_mkTargetCommands___spec__1(ptr readnone captures(none) %0, ptr noundef %1, ptr noundef %2, ptr noundef %3, ptr noundef readonly captures(none) %4, ptr noundef %5, ptr noundef %6) local_unnamed_addr #0 {
  %8 = ptrtoint ptr %5 to i64
  %9 = and i64 %8, 1
  %10 = ptrtoint ptr %6 to i64
  %11 = and i64 %9, %10
  %or.cond.not = icmp eq i64 %11, 0
  br i1 %or.cond.not, label %lean_nat_lt.exit, label %12, !prof !19

12:                                               ; preds = %7
  %13 = icmp ult ptr %5, %6
  br i1 %13, label %26, label %15

lean_nat_lt.exit:                                 ; preds = %7
  %14 = tail call zeroext i1 @lean_nat_big_lt(ptr noundef %5, ptr noundef %6) #6
  br i1 %14, label %26, label %15

15:                                               ; preds = %12, %lean_nat_lt.exit
  %16 = ptrtoint ptr %3 to i64
  %17 = and i64 %16, 1
  %.not37 = icmp eq i64 %17, 0
  br i1 %.not37, label %18, label %lean_dec.exit24

18:                                               ; preds = %15
  %19 = load i32, ptr %3, align 4, !tbaa !8
  %20 = icmp sgt i32 %19, 1
  br i1 %20, label %21, label %23, !prof !11

21:                                               ; preds = %18
  %22 = add nsw i32 %19, -1
  store i32 %22, ptr %3, align 4, !tbaa !8
  br label %lean_dec.exit24

23:                                               ; preds = %18
  %.not.i = icmp eq i32 %19, 0
  br i1 %.not.i, label %lean_dec.exit24, label %24

24:                                               ; preds = %23
  tail call void @lean_dec_ref_cold(ptr noundef nonnull %3) #6
  br label %lean_dec.exit24

lean_dec.exit24:                                  ; preds = %24, %23, %21, %15
  %25 = load ptr, ptr @l_Lake_quoteArray_x3f___rarg___closed__1, align 8, !tbaa !12
  br label %58

26:                                               ; preds = %12, %lean_nat_lt.exit
  %27 = getelementptr i8, ptr %4, i64 8
  %.val = load i64, ptr %27, align 8, !tbaa !4
  %28 = shl i64 %.val, 1
  %29 = or disjoint i64 %28, 1
  %30 = inttoptr i64 %29 to ptr
  %31 = and i64 %10, 1
  %.not = icmp eq i64 %31, 0
  br i1 %.not, label %lean_dec.exit23, label %32, !prof !18

32:                                               ; preds = %26
  %.not38 = icmp ugt ptr %6, %30
  br i1 %.not38, label %34, label %45

lean_dec.exit23:                                  ; preds = %26
  %33 = tail call zeroext i1 @lean_nat_big_le(ptr noundef %6, ptr noundef nonnull %30) #6
  br i1 %33, label %45, label %34

34:                                               ; preds = %32, %lean_dec.exit23
  %35 = ptrtoint ptr %3 to i64
  %36 = and i64 %35, 1
  %.not36 = icmp eq i64 %36, 0
  br i1 %.not36, label %37, label %lean_dec.exit

37:                                               ; preds = %34
  %38 = load i32, ptr %3, align 4, !tbaa !8
  %39 = icmp sgt i32 %38, 1
  br i1 %39, label %40, label %42, !prof !11

40:                                               ; preds = %37
  %41 = add nsw i32 %38, -1
  store i32 %41, ptr %3, align 4, !tbaa !8
  br label %lean_dec.exit

42:                                               ; preds = %37
  %.not.i27 = icmp eq i32 %38, 0
  br i1 %.not.i27, label %lean_dec.exit, label %43

43:                                               ; preds = %42
  tail call void @lean_dec_ref_cold(ptr noundef nonnull %3) #6
  br label %lean_dec.exit

lean_dec.exit:                                    ; preds = %43, %42, %40, %34
  %44 = load ptr, ptr @l_Lake_quoteArray_x3f___rarg___closed__1, align 8, !tbaa !12
  br label %58

45:                                               ; preds = %32, %lean_dec.exit23
  %.not.i31 = icmp eq i64 %9, 0
  br i1 %.not.i31, label %48, label %46

46:                                               ; preds = %45
  %47 = lshr i64 %8, 1
  br label %lean_usize_of_nat.exit

48:                                               ; preds = %45
  %49 = tail call i64 @lean_usize_of_big_nat(ptr noundef %5) #6
  br label %lean_usize_of_nat.exit

lean_usize_of_nat.exit:                           ; preds = %46, %48
  %50 = phi i64 [ %47, %46 ], [ %49, %48 ]
  br i1 %.not, label %53, label %51

51:                                               ; preds = %lean_usize_of_nat.exit
  %52 = lshr i64 %10, 1
  br label %lean_usize_of_nat.exit33

53:                                               ; preds = %lean_usize_of_nat.exit
  %54 = tail call i64 @lean_usize_of_big_nat(ptr noundef %6) #6
  br label %lean_usize_of_nat.exit33

lean_usize_of_nat.exit33:                         ; preds = %51, %53
  %55 = phi i64 [ %52, %51 ], [ %54, %53 ]
  %56 = load ptr, ptr @l_Lake_quoteArray_x3f___rarg___closed__1, align 8, !tbaa !12
  %57 = tail call ptr @l_Array_foldlMUnsafe_fold___at_Lake_Package_mkTargetCommands___spec__2(ptr poison, ptr noundef %1, ptr noundef %2, ptr noundef %3, ptr noundef nonnull %4, i64 noundef %50, i64 noundef %55, ptr noundef %56)
  br label %58

58:                                               ; preds = %lean_dec.exit, %lean_usize_of_nat.exit33, %lean_dec.exit24
  %.0 = phi ptr [ %25, %lean_dec.exit24 ], [ %44, %lean_dec.exit ], [ %57, %lean_usize_of_nat.exit33 ]
  ret ptr %.0
}